(dp0
S'beta'
p1
F0.96
sS'A'
p2
F1.0
sS'g_y'
p3
F0.030000000000000027
sS'chi'
p4
F1.0
sS'J'
p5
I7
sS'S'
p6
I60
sS'TPImaxiter'
p7
I100
sS'ltilde'
p8
F1.0
sS'ctilde'
p9
F0.001
sS'bin_weights'
p10
cnumpy.core.multiarray
_reconstruct
p11
(cnumpy
ndarray
p12
(I0
tp13
S'b'
p14
tp15
Rp16
(I1
(I7
tp17
cnumpy
dtype
p18
(S'f8'
p19
I0
I1
tp20
Rp21
(I3
S'<'
p22
NNNI-1
I-1
I0
tp23
bI00
S'\x92$I\x92$I\xc2?\x92$I\x92$I\xc2?\x92$I\x92$I\xc2?\x92$I\x92$I\xc2?\x92$I\x92$I\xc2?\x92$I\x92$I\xc2?\x92$I\x92$I\xc2?'
p24
tp25
bsS'eta'
p26
F2.0
sS'starting_age'
p27
I20
sS'T'
p28
I180
sS'delta'
p29
F0.050000000000000044
sS'alpha'
p30
F0.35
sS'sigma'
p31
F3.0
sS'nu'
p32
F0.2
sS'TPImindist'
p33
F3e-06
s.