(dp0
S'g_y'
p1
F0.030000000000000027
sS'ctilde'
p2
F1e-06
sS'bqtilde'
p3
F1e-06
sS'chi_b'
p4
F1.0
sS'nu'
p5
F0.2
sS'A'
p6
F1.0
sS'E'
p7
I20
sS'chi_n'
p8
F1.0
sS'bin_weights'
p9
cnumpy.core.multiarray
_reconstruct
p10
(cnumpy
ndarray
p11
(I0
tp12
S'b'
p13
tp14
Rp15
(I1
(L2L
tp16
cnumpy
dtype
p17
(S'f8'
p18
I0
I1
tp19
Rp20
(I3
S'<'
p21
NNNI-1
I-1
I0
tp22
bI00
S'\x00\x00\x00\x00\x00\x00\xe0?\x00\x00\x00\x00\x00\x00\xe0?'
p23
tp24
bsS'J'
p25
I2
sS'ending_age'
p26
I100
sS'beta'
p27
F0.96
sS'T'
p28
I160
sS'delta'
p29
F0.050000000000000044
sS'alpha'
p30
F0.35
sS'TPImaxiter'
p31
I100
sS'S'
p32
I80
sS'TPImindist'
p33
F3e-06
sS'ltilde'
p34
F1.0
sS'eta'
p35
F2.0
sS'starting_age'
p36
I20
sS'sigma'
p37
F3.0
s.