(dp0
S'A'
p1
F1.0
sS'g_y'
p2
F0.030000000000000027
sS'chi'
p3
F1.0
sS'J'
p4
I7
sS'S'
p5
I60
sS'TPImaxiter'
p6
I100
sS'ltilde'
p7
F1.0
sS'ctilde'
p8
F0.001
sS'beta'
p9
F0.96
sS'eta'
p10
F2.0
sS'starting_age'
p11
I20
sS'T'
p12
I90
sS'delta'
p13
F0.050000000000000044
sS'alpha'
p14
F0.35
sS'sigma'
p15
F3.0
sS'nu'
p16
F0.2
sS'TPImindist'
p17
F3e-06
s.