(dp0
S'beta'
p1
F0.96
sS'A'
p2
F1.0
sS'E'
p3
I20
sS'TPImaxiter'
p4
I100
sS'g_y'
p5
F0.030000000000000027
sS'chi_n'
p6
F1.0
sS'J'
p7
I7
sS'S'
p8
I80
sS'ending_age'
p9
I100
sS'ltilde'
p10
F1.0
sS'ctilde'
p11
F0.001
sS'bin_weights'
p12
cnumpy.core.multiarray
_reconstruct
p13
(cnumpy
ndarray
p14
(I0
tp15
S'b'
p16
tp17
Rp18
(I1
(I7
tp19
cnumpy
dtype
p20
(S'f8'
p21
I0
I1
tp22
Rp23
(I3
S'<'
p24
NNNI-1
I-1
I0
tp25
bI00
S'\x92$I\x92$I\xc2?\x92$I\x92$I\xc2?\x92$I\x92$I\xc2?\x92$I\x92$I\xc2?\x92$I\x92$I\xc2?\x92$I\x92$I\xc2?\x92$I\x92$I\xc2?'
p26
tp27
bsS'eta'
p28
F2.0
sS'starting_age'
p29
I20
sS'T'
p30
I160
sS'delta'
p31
F0.050000000000000044
sS'chi_b'
p32
F1.0
sS'alpha'
p33
F0.35
sS'sigma'
p34
F3.0
sS'nu'
p35
F0.2
sS'TPImindist'
p36
F3e-06
s.