(dp0
S'beta'
p1
F0.96
sS'A'
p2
F1.0
sS'g_y'
p3
F0.030000000000000027
sS'TPImaxiter'
p4
I100
sS'chi'
p5
F1.0
sS'J'
p6
I7
sS'S'
p7
I80
sS'ending_age'
p8
I100
sS'ltilde'
p9
F1.0
sS'ctilde'
p10
F0.001
sS'bin_weights'
p11
cnumpy.core.multiarray
_reconstruct
p12
(cnumpy
ndarray
p13
(I0
tp14
S'b'
p15
tp16
Rp17
(I1
(I7
tp18
cnumpy
dtype
p19
(S'f8'
p20
I0
I1
tp21
Rp22
(I3
S'<'
p23
NNNI-1
I-1
I0
tp24
bI00
S'\x92$I\x92$I\xc2?\x92$I\x92$I\xc2?\x92$I\x92$I\xc2?\x92$I\x92$I\xc2?\x92$I\x92$I\xc2?\x92$I\x92$I\xc2?\x92$I\x92$I\xc2?'
p25
tp26
bsS'eta'
p27
F2.0
sS'starting_age'
p28
I20
sS'T'
p29
I160
sS'delta'
p30
F0.050000000000000044
sS'alpha'
p31
F0.35
sS'sigma'
p32
F3.0
sS'nu'
p33
F0.2
sS'TPImindist'
p34
F3e-06
s.